target datalayout = "e-m:e-p270:32:32-p271:32:32-p272:64:64-i64:64-i128:128-f80:128-n8:16:32:64-S128"
target triple = "x86_64-pc-linux-gnu"

%struct.t_mat = type { i32, i32, ptr, i8, float, float, float, ptr, ptr }

; Function Attrs: mustprogress nounwind uwtable
define linkonce_odr noundef nonnull align 4 dereferenceable(4) ptr @_ZSt3maxIiERKT_S2_S2_(ptr noundef nonnull align 4 dereferenceable(4) %0, ptr noundef nonnull align 4 dereferenceable(4) %1) #2 comdat {
  %3 = alloca ptr, align 8
  %4 = alloca ptr, align 8
  %5 = alloca ptr, align 8
  store ptr %0, ptr %4, align 8
  store ptr %1, ptr %5, align 8
  %6 = load ptr, ptr %4, align 8
  %7 = load i32, ptr %6, align 4
  %8 = load ptr, ptr %5, align 8
  %9 = load i32, ptr %8, align 4
  %10 = icmp slt i32 %7, %9
  br i1 %10, label %11, label %13

11:                                               ; preds = %2
  %12 = load ptr, ptr %5, align 8
  store ptr %12, ptr %3, align 8
  br label %15

13:                                               ; preds = %2
  %14 = load ptr, ptr %4, align 8
  store ptr %14, ptr %3, align 8
  br label %15

15:                                               ; preds = %13, %11
  %16 = load ptr, ptr %3, align 8
  ret ptr %16
}

; Function Attrs: mustprogress nounwind uwtable
define linkonce_odr noundef nonnull align 4 dereferenceable(4) ptr @_ZSt3minIfERKT_S2_S2_(ptr noundef nonnull align 4 dereferenceable(4) %0, ptr noundef nonnull align 4 dereferenceable(4) %1) #2 comdat {
  %3 = alloca ptr, align 8
  %4 = alloca ptr, align 8
  %5 = alloca ptr, align 8
  store ptr %0, ptr %4, align 8
  store ptr %1, ptr %5, align 8
  %6 = load ptr, ptr %5, align 8
  %7 = load float, ptr %6, align 4
  %8 = load ptr, ptr %4, align 8
  %9 = load float, ptr %8, align 4
  %10 = fcmp olt float %7, %9
  br i1 %10, label %11, label %13

11:                                               ; preds = %2
  %12 = load ptr, ptr %5, align 8
  store ptr %12, ptr %3, align 8
  br label %15

13:                                               ; preds = %2
  %14 = load ptr, ptr %4, align 8
  store ptr %14, ptr %3, align 8
  br label %15

15:                                               ; preds = %13, %11
  %16 = load ptr, ptr %3, align 8
  ret ptr %16
}

; Function Attrs: mustprogress nounwind uwtable
define linkonce_odr noundef nonnull align 4 dereferenceable(4) ptr @_ZSt3maxIfERKT_S2_S2_(ptr noundef nonnull align 4 dereferenceable(4) %0, ptr noundef nonnull align 4 dereferenceable(4) %1) #2 comdat {
  %3 = alloca ptr, align 8
  %4 = alloca ptr, align 8
  %5 = alloca ptr, align 8
  store ptr %0, ptr %4, align 8
  store ptr %1, ptr %5, align 8
  %6 = load ptr, ptr %4, align 8
  %7 = load float, ptr %6, align 4
  %8 = load ptr, ptr %5, align 8
  %9 = load float, ptr %8, align 4
  %10 = fcmp olt float %7, %9
  br i1 %10, label %11, label %13

11:                                               ; preds = %2
  %12 = load ptr, ptr %5, align 8
  store ptr %12, ptr %3, align 8
  br label %15

13:                                               ; preds = %2
  %14 = load ptr, ptr %4, align 8
  store ptr %14, ptr %3, align 8
  br label %15

15:                                               ; preds = %13, %11
  %16 = load ptr, ptr %3, align 8
  ret ptr %16
}

; Function Attrs: mustprogress uwtable
define void @_Z13set_mat_entryP5t_matiif(ptr noundef %0, i32 noundef %1, i32 noundef %2, float noundef %3) #0 {
  %5 = alloca ptr, align 8
  %6 = alloca i32, align 4
  %7 = alloca i32, align 4
  %8 = alloca float, align 4
  %9 = alloca i32, align 4
  %10 = alloca i32, align 4
  store ptr %0, ptr %5, align 8
  store i32 %1, ptr %6, align 4
  store i32 %2, ptr %7, align 4
  store float %3, ptr %8, align 4
  %11 = load float, ptr %8, align 4
  %12 = load ptr, ptr %5, align 8
  %13 = getelementptr inbounds %struct.t_mat, ptr %12, i32 0, i32 8
  %14 = load ptr, ptr %13, align 8
  %15 = load i32, ptr %7, align 4
  %16 = sext i32 %15 to i64
  %17 = getelementptr inbounds ptr, ptr %14, i64 %16
  %18 = load ptr, ptr %17, align 8
  %19 = load i32, ptr %6, align 4
  %20 = sext i32 %19 to i64
  %21 = getelementptr inbounds float, ptr %18, i64 %20
  store float %11, ptr %21, align 4
  %22 = load ptr, ptr %5, align 8
  %23 = getelementptr inbounds %struct.t_mat, ptr %22, i32 0, i32 8
  %24 = load ptr, ptr %23, align 8
  %25 = load i32, ptr %6, align 4
  %26 = sext i32 %25 to i64
  %27 = getelementptr inbounds ptr, ptr %24, i64 %26
  %28 = load ptr, ptr %27, align 8
  %29 = load i32, ptr %7, align 4
  %30 = sext i32 %29 to i64
  %31 = getelementptr inbounds float, ptr %28, i64 %30
  store float %11, ptr %31, align 4
  %32 = load ptr, ptr %5, align 8
  %33 = getelementptr inbounds %struct.t_mat, ptr %32, i32 0, i32 5
  %34 = call noundef nonnull align 4 dereferenceable(4) ptr @_ZSt3maxIfERKT_S2_S2_(ptr noundef nonnull align 4 dereferenceable(4) %33, ptr noundef nonnull align 4 dereferenceable(4) %8)
  %35 = load float, ptr %34, align 4
  %36 = load ptr, ptr %5, align 8
  %37 = getelementptr inbounds %struct.t_mat, ptr %36, i32 0, i32 5
  store float %35, ptr %37, align 8
  %38 = load i32, ptr %7, align 4
  %39 = load i32, ptr %6, align 4
  %40 = icmp ne i32 %38, %39
  br i1 %40, label %41, label %48

41:                                               ; preds = %4
  %42 = load ptr, ptr %5, align 8
  %43 = getelementptr inbounds %struct.t_mat, ptr %42, i32 0, i32 4
  %44 = call noundef nonnull align 4 dereferenceable(4) ptr @_ZSt3minIfERKT_S2_S2_(ptr noundef nonnull align 4 dereferenceable(4) %43, ptr noundef nonnull align 4 dereferenceable(4) %8)
  %45 = load float, ptr %44, align 4
  %46 = load ptr, ptr %5, align 8
  %47 = getelementptr inbounds %struct.t_mat, ptr %46, i32 0, i32 4
  store float %45, ptr %47, align 4
  br label %48

48:                                               ; preds = %41, %4
  %49 = load float, ptr %8, align 4
  %50 = load ptr, ptr %5, align 8
  %51 = getelementptr inbounds %struct.t_mat, ptr %50, i32 0, i32 6
  %52 = load float, ptr %51, align 4
  %53 = fadd float %52, %49
  store float %53, ptr %51, align 4
  %54 = load ptr, ptr %5, align 8
  %55 = getelementptr inbounds %struct.t_mat, ptr %54, i32 0, i32 1
  %56 = load i32, ptr %7, align 4
  %57 = add nsw i32 %56, 1
  store i32 %57, ptr %9, align 4
  %58 = load i32, ptr %6, align 4
  %59 = add nsw i32 %58, 1
  store i32 %59, ptr %10, align 4
  %60 = call noundef nonnull align 4 dereferenceable(4) ptr @_ZSt3maxIiERKT_S2_S2_(ptr noundef nonnull align 4 dereferenceable(4) %9, ptr noundef nonnull align 4 dereferenceable(4) %10)
  %61 = call noundef nonnull align 4 dereferenceable(4) ptr @_ZSt3maxIiERKT_S2_S2_(ptr noundef nonnull align 4 dereferenceable(4) %55, ptr noundef nonnull align 4 dereferenceable(4) %60)
  %62 = load i32, ptr %61, align 4
  %63 = load ptr, ptr %5, align 8
  %64 = getelementptr inbounds %struct.t_mat, ptr %63, i32 0, i32 1
  store i32 %62, ptr %64, align 4
  ret void
}