; Function Attrs: mustprogress nofree norecurse nosync nounwind willreturn memory(readwrite, inaccessiblemem: none) uwtable
define void @_Z13set_mat_entryP5t_matiif(ptr nocapture noundef %0, i32 noundef %1, i32 noundef %2, float noundef %3) local_unnamed_addr #5 {
  %5 = getelementptr inbounds i8, ptr %0, i64 40
  %6 = load ptr, ptr %5, align 8
  %7 = sext i32 %2 to i64
  %8 = getelementptr inbounds ptr, ptr %6, i64 %7
  %9 = load ptr, ptr %8, align 8
  %10 = sext i32 %1 to i64
  %11 = getelementptr inbounds float, ptr %9, i64 %10
  store float %3, ptr %11, align 4
  %12 = load ptr, ptr %5, align 8
  %13 = getelementptr inbounds ptr, ptr %12, i64 %10
  %14 = load ptr, ptr %13, align 8
  %15 = getelementptr inbounds float, ptr %14, i64 %7
  store float %3, ptr %15, align 4
  %16 = getelementptr inbounds i8, ptr %0, i64 24
  %17 = load float, ptr %16, align 4
  %18 = fcmp olt float %17, %3
  %.sroa.speculated25 = select i1 %18, float %3, float %17
  store float %.sroa.speculated25, ptr %16, align 8
  %.not = icmp eq i32 %2, %1
  br i1 %.not, label %23, label %19

19:                                               ; preds = %4
  %20 = getelementptr inbounds i8, ptr %0, i64 20
  %21 = load float, ptr %20, align 4
  %22 = fcmp ogt float %21, %3
  %.sroa.speculated = select i1 %22, float %3, float %21
  store float %.sroa.speculated, ptr %20, align 4
  br label %23

23:                                               ; preds = %19, %4
  %24 = getelementptr inbounds i8, ptr %0, i64 28
  %25 = load float, ptr %24, align 4
  %26 = fadd float %25, %3
  store float %26, ptr %24, align 4
  %27 = getelementptr inbounds i8, ptr %0, i64 4
  %28 = load i32, ptr %27, align 4
  %.v = tail call i32 @llvm.smax.i32(i32 %2, i32 %1)
  %29 = add nsw i32 %.v, 1
  %30 = tail call i32 @llvm.smax.i32(i32 %28, i32 %29)
  store i32 %30, ptr %27, align 4
  ret void
}